; Function Attrs: mustprogress uwtable
define hidden void @_ZN3smt10theory_lra14init_search_ehEv(ptr noundef nonnull readonly align 8 captures(none) dereferenceable(72) %0) unnamed_addr #4 align 2 {
  %2 = getelementptr inbounds nuw i8, ptr %0, i64 64
  %3 = load ptr, ptr %2, align 8, !tbaa !506
  %4 = getelementptr inbounds nuw i8, ptr %3, i64 32
  tail call void @_ZN3smt16arith_eq_adapter14init_search_ehEv(ptr noundef nonnull align 8 dereferenceable(64) %4)
  %5 = getelementptr inbounds nuw i8, ptr %3, i64 320
  store i32 0, ptr %5, align 8, !tbaa !674
  ret void
}